target datalayout = "e-m:e-p270:32:32-p271:32:32-p272:64:64-i64:64-i128:128-f80:128-n8:16:32:64-S128"
target triple = "x86_64-pc-linux-gnu"

%"struct.vcpkg::StringView" = type { ptr, i64 }
%"struct.vcpkg::msg::MessageT.213" = type { i64 }
%"struct.vcpkg::LocalizedString" = type { %"class.std::__cxx11::basic_string" }
%"class.std::__cxx11::basic_string" = type { %"struct.std::__cxx11::basic_string<char>::_Alloc_hider", i64, %union.anon.1 }
%"struct.std::__cxx11::basic_string<char>::_Alloc_hider" = type { ptr }
%union.anon.1 = type { i64, [8 x i8] }
%"struct.vcpkg::ExpectedT.48" = type <{ %union.anon.49, i8, [7 x i8] }>
%union.anon.49 = type { %"struct.vcpkg::LocalizedString", [16 x i8] }

@_ZN5vcpkg23msgErrorRequireBaselineE = external global %"struct.vcpkg::msg::MessageT.213", align 8

; Function Attrs: mustprogress nounwind uwtable
define linkonce_odr dso_local void @_ZN5vcpkg15LocalizedStringC2EOS0_(ptr noundef nonnull align 8 dereferenceable(32) %0, ptr noundef nonnull align 8 dereferenceable(32) %1) unnamed_addr #1 comdat align 2 {
  %3 = alloca ptr, align 8
  %4 = alloca ptr, align 8
  store ptr %0, ptr %3, align 8
  store ptr %1, ptr %4, align 8
  %5 = load ptr, ptr %3, align 8
  %6 = getelementptr inbounds %"struct.vcpkg::LocalizedString", ptr %5, i32 0, i32 0
  %7 = load ptr, ptr %4, align 8
  %8 = getelementptr inbounds %"struct.vcpkg::LocalizedString", ptr %7, i32 0, i32 0
  call void @_ZNSt7__cxx1112basic_stringIcSt11char_traitsIcESaIcEEC1EOS4_(ptr noundef nonnull align 8 dereferenceable(32) %6, ptr noundef nonnull align 8 dereferenceable(32) %8) #2
  ret void
}

; Function Attrs: mustprogress nounwind uwtable
define linkonce_odr dso_local void @_ZN5vcpkg15LocalizedStringD2Ev(ptr noundef nonnull align 8 dereferenceable(32) %0) unnamed_addr #1 comdat align 2 {
  %2 = alloca ptr, align 8
  store ptr %0, ptr %2, align 8
  %3 = load ptr, ptr %2, align 8
  %4 = getelementptr inbounds %"struct.vcpkg::LocalizedString", ptr %3, i32 0, i32 0
  call void @_ZNSt7__cxx1112basic_stringIcSt11char_traitsIcESaIcEED1Ev(ptr noundef nonnull align 8 dereferenceable(32) %4) #2
  ret void
}

; Function Attrs: mustprogress nounwind uwtable
define linkonce_odr dso_local void @_ZN5vcpkg9ExpectedTINS_8OptionalINS_7VersionEEENS_15LocalizedStringEEC2IS4_TnNSt9enable_ifIXaasr3stdE16is_convertible_vIT_S4_Entsr3stdE9is_same_vINSt16remove_referenceIS8_E4typeES3_EEiE4typeELi0ELi1EEEOS8_(ptr noundef nonnull align 8 dereferenceable(49) %0, ptr noundef nonnull align 8 dereferenceable(32) %1) unnamed_addr #1 comdat align 2 {
  %3 = alloca ptr, align 8
  %4 = alloca ptr, align 8
  store ptr %0, ptr %3, align 8
  store ptr %1, ptr %4, align 8
  %5 = load ptr, ptr %3, align 8
  %6 = getelementptr inbounds %"struct.vcpkg::ExpectedT.48", ptr %5, i32 0, i32 0
  %7 = load ptr, ptr %4, align 8
  call void @_ZN5vcpkg15LocalizedStringC2EOS0_(ptr noundef nonnull align 8 dereferenceable(32) %6, ptr noundef nonnull align 8 dereferenceable(32) %7) #2
  %8 = getelementptr inbounds %"struct.vcpkg::ExpectedT.48", ptr %5, i32 0, i32 1
  store i8 1, ptr %8, align 8
  ret void
}

; Function Attrs: mustprogress uwtable
define linkonce_odr dso_local void @_ZN5vcpkg3msg12format_errorIJEJEEENS_15LocalizedStringENS0_8MessageTIJDpT_EEEDpNS0_6TagArgINS_8identityIS4_E4typeET0_EE(ptr dead_on_unwind noalias writable sret(%"struct.vcpkg::LocalizedString") align 8 %0, i64 %1) #3 comdat personality ptr @__gxx_personality_v0 {
  %3 = alloca ptr, align 8
  %4 = alloca %"struct.vcpkg::msg::MessageT.213", align 8
  %5 = alloca i1, align 1
  %6 = alloca %"struct.vcpkg::msg::MessageT.213", align 8
  %7 = alloca ptr, align 8
  %8 = alloca i32, align 4
  store ptr %0, ptr %3, align 8
  %9 = getelementptr inbounds %"struct.vcpkg::msg::MessageT.213", ptr %4, i32 0, i32 0
  store i64 %1, ptr %9, align 8
  store i1 false, ptr %5, align 1
  call void @_ZN5vcpkg12error_prefixEv(ptr dead_on_unwind writable sret(%"struct.vcpkg::LocalizedString") align 8 %0)
  call void @llvm.memcpy.p0.p0.i64(ptr align 8 %6, ptr align 8 %4, i64 8, i1 false)
  %10 = getelementptr inbounds %"struct.vcpkg::msg::MessageT.213", ptr %6, i32 0, i32 0
  %11 = load i64, ptr %10, align 8
  invoke void @_ZN5vcpkg3msg9format_toIJEJEEEvRNS_15LocalizedStringENS0_8MessageTIJDpT_EEEDpNS0_6TagArgINS_8identityIS5_E4typeET0_EE(ptr noundef nonnull align 8 dereferenceable(32) %0, i64 %11)
          to label %12 unwind label %14

12:                                               ; preds = %2
  store i1 true, ptr %5, align 1
  %13 = load i1, ptr %5, align 1
  br i1 %13, label %19, label %18

14:                                               ; preds = %2
  %15 = landingpad { ptr, i32 }
          cleanup
  %16 = extractvalue { ptr, i32 } %15, 0
  store ptr %16, ptr %7, align 8
  %17 = extractvalue { ptr, i32 } %15, 1
  store i32 %17, ptr %8, align 4
  call void @_ZN5vcpkg15LocalizedStringD2Ev(ptr noundef nonnull align 8 dereferenceable(32) %0) #2
  br label %20

18:                                               ; preds = %12
  call void @_ZN5vcpkg15LocalizedStringD2Ev(ptr noundef nonnull align 8 dereferenceable(32) %0) #2
  br label %19

19:                                               ; preds = %18, %12
  ret void

20:                                               ; preds = %14
  %21 = load ptr, ptr %7, align 8
  %22 = load i32, ptr %8, align 4
  %23 = insertvalue { ptr, i32 } poison, ptr %21, 0
  %24 = insertvalue { ptr, i32 } %23, i32 %22, 1
  resume { ptr, i32 } %24
}

; Function Attrs: mustprogress uwtable
define internal void @_ZNK12_GLOBAL__N_120BuiltinErrorRegistry20get_baseline_versionEN5vcpkg10StringViewE(ptr dead_on_unwind noalias writable sret(%"struct.vcpkg::ExpectedT.48") align 8 %0, ptr noundef nonnull align 8 dereferenceable(8) %1, ptr %2, i64 %3) unnamed_addr #3 align 2 {
  %5 = alloca ptr, align 8
  %6 = alloca %"struct.vcpkg::StringView", align 8
  %7 = alloca ptr, align 8
  %8 = alloca %"struct.vcpkg::LocalizedString", align 8
  %9 = alloca %"struct.vcpkg::msg::MessageT.213", align 8
  store ptr %0, ptr %5, align 8
  %10 = getelementptr inbounds { ptr, i64 }, ptr %6, i32 0, i32 0
  store ptr %2, ptr %10, align 8
  %11 = getelementptr inbounds { ptr, i64 }, ptr %6, i32 0, i32 1
  store i64 %3, ptr %11, align 8
  store ptr %1, ptr %7, align 8
  call void @llvm.memcpy.p0.p0.i64(ptr align 8 %9, ptr align 8 @_ZN5vcpkg23msgErrorRequireBaselineE, i64 8, i1 false)
  %12 = getelementptr inbounds %"struct.vcpkg::msg::MessageT.213", ptr %9, i32 0, i32 0
  %13 = load i64, ptr %12, align 8
  call void @_ZN5vcpkg3msg12format_errorIJEJEEENS_15LocalizedStringENS0_8MessageTIJDpT_EEEDpNS0_6TagArgINS_8identityIS4_E4typeET0_EE(ptr dead_on_unwind writable sret(%"struct.vcpkg::LocalizedString") align 8 %8, i64 %13)
  call void @_ZN5vcpkg9ExpectedTINS_8OptionalINS_7VersionEEENS_15LocalizedStringEEC2IS4_TnNSt9enable_ifIXaasr3stdE16is_convertible_vIT_S4_Entsr3stdE9is_same_vINSt16remove_referenceIS8_E4typeES3_EEiE4typeELi0ELi1EEEOS8_(ptr noundef nonnull align 8 dereferenceable(49) %0, ptr noundef nonnull align 8 dereferenceable(32) %8) #2
  call void @_ZN5vcpkg15LocalizedStringD2Ev(ptr noundef nonnull align 8 dereferenceable(32) %8) #2
  ret void
}